target datalayout = "e-m:e-p270:32:32-p271:32:32-p272:64:64-i64:64-i128:128-f80:128-n8:16:32:64-S128"
target triple = "x86_64-pc-linux-gnu"

%struct.H5O_loc_t = type { ptr, i64, i8 }
%struct.H5G_name_t = type { ptr, ptr, i32 }
%struct.H5G_loc_t = type { ptr, ptr }

@.str.3 = private unnamed_addr constant [100 x i8] c"generated/home/dtcxzyw/WorkSpace/Projects/compilers/llvm-opt-benchmark/bench/hdf5/hdf5/src/H5Gint.c\00", align 1
@H5E_SYM_g = external global i64, align 8
@__func__.H5G__open_name = private unnamed_addr constant [15 x i8] c"H5G__open_name\00", align 1
@H5E_NOTFOUND_g = external global i64, align 8
@.str.13 = private unnamed_addr constant [16 x i8] c"group not found\00", align 1
@H5E_CANTGET_g = external global i64, align 8
@.str.14 = private unnamed_addr constant [22 x i8] c"can't get object type\00", align 1
@H5E_BADTYPE_g = external global i64, align 8
@.str.15 = private unnamed_addr constant [12 x i8] c"not a group\00", align 1
@H5E_CANTOPENOBJ_g = external global i64, align 8
@.str.16 = private unnamed_addr constant [21 x i8] c"unable to open group\00", align 1
@H5E_CANTRELEASE_g = external global i64, align 8
@.str.17 = private unnamed_addr constant [20 x i8] c"can't free location\00", align 1

; Function Attrs: nounwind uwtable
define ptr @H5G__open_name(ptr noundef %0, ptr noundef %1) #0 {
  %3 = alloca ptr, align 8
  %4 = alloca ptr, align 8
  %5 = alloca ptr, align 8
  %6 = alloca %struct.H5G_loc_t, align 8
  %7 = alloca %struct.H5G_name_t, align 8
  %8 = alloca %struct.H5O_loc_t, align 8
  %9 = alloca i8, align 1
  %10 = alloca i32, align 4
  %11 = alloca ptr, align 8
  %12 = alloca i8, align 1
  store ptr %0, ptr %3, align 8
  store ptr %1, ptr %4, align 8
  store ptr null, ptr %5, align 8
  store i8 0, ptr %9, align 1
  store ptr null, ptr %11, align 8
  store i8 0, ptr %12, align 1
  %13 = getelementptr inbounds %struct.H5G_loc_t, ptr %6, i32 0, i32 0
  store ptr %8, ptr %13, align 8
  %14 = getelementptr inbounds %struct.H5G_loc_t, ptr %6, i32 0, i32 1
  store ptr %7, ptr %14, align 8
  %15 = call i32 @H5G_loc_reset(ptr noundef %6)
  %16 = load ptr, ptr %3, align 8
  %17 = load ptr, ptr %4, align 8
  %18 = call i32 @H5G_loc_find(ptr noundef %16, ptr noundef %17, ptr noundef %6)
  %19 = icmp slt i32 %18, 0
  br i1 %19, label %20, label %35

20:                                               ; preds = %2
  br label %21

21:                                               ; preds = %20
  br label %22

22:                                               ; preds = %21
  br label %23

23:                                               ; preds = %22
  %24 = load i64, ptr @H5E_SYM_g, align 8
  %25 = load i64, ptr @H5E_NOTFOUND_g, align 8
  %26 = call i32 (ptr, ptr, i32, i64, i64, ptr, ...) @H5E_printf_stack(ptr noundef @.str.3, ptr noundef @__func__.H5G__open_name, i32 noundef 380, i64 noundef %24, i64 noundef %25, ptr noundef @.str.13)
  br label %27

27:                                               ; preds = %23
  store i8 1, ptr %12, align 1
  %28 = load i8, ptr %12, align 1
  %29 = trunc i8 %28 to i1
  %30 = zext i1 %29 to i8
  store i8 %30, ptr %12, align 1
  br label %31

31:                                               ; preds = %27
  br label %32

32:                                               ; preds = %31
  store ptr null, ptr %11, align 8
  br label %91

33:                                               ; No predecessors!
  br label %34

34:                                               ; preds = %33
  br label %35

35:                                               ; preds = %34, %2
  store i8 1, ptr %9, align 1
  %36 = call i32 @H5O_obj_type(ptr noundef %8, ptr noundef %10)
  %37 = icmp slt i32 %36, 0
  br i1 %37, label %38, label %53

38:                                               ; preds = %35
  br label %39

39:                                               ; preds = %38
  br label %40

40:                                               ; preds = %39
  br label %41

41:                                               ; preds = %40
  %42 = load i64, ptr @H5E_SYM_g, align 8
  %43 = load i64, ptr @H5E_CANTGET_g, align 8
  %44 = call i32 (ptr, ptr, i32, i64, i64, ptr, ...) @H5E_printf_stack(ptr noundef @.str.3, ptr noundef @__func__.H5G__open_name, i32 noundef 385, i64 noundef %42, i64 noundef %43, ptr noundef @.str.14)
  br label %45

45:                                               ; preds = %41
  store i8 1, ptr %12, align 1
  %46 = load i8, ptr %12, align 1
  %47 = trunc i8 %46 to i1
  %48 = zext i1 %47 to i8
  store i8 %48, ptr %12, align 1
  br label %49

49:                                               ; preds = %45
  br label %50

50:                                               ; preds = %49
  store ptr null, ptr %11, align 8
  br label %91

51:                                               ; No predecessors!
  br label %52

52:                                               ; preds = %51
  br label %53

53:                                               ; preds = %52, %35
  %54 = load i32, ptr %10, align 4
  %55 = icmp ne i32 %54, 0
  br i1 %55, label %56, label %71

56:                                               ; preds = %53
  br label %57

57:                                               ; preds = %56
  br label %58

58:                                               ; preds = %57
  br label %59

59:                                               ; preds = %58
  %60 = load i64, ptr @H5E_SYM_g, align 8
  %61 = load i64, ptr @H5E_BADTYPE_g, align 8
  %62 = call i32 (ptr, ptr, i32, i64, i64, ptr, ...) @H5E_printf_stack(ptr noundef @.str.3, ptr noundef @__func__.H5G__open_name, i32 noundef 387, i64 noundef %60, i64 noundef %61, ptr noundef @.str.15)
  br label %63

63:                                               ; preds = %59
  store i8 1, ptr %12, align 1
  %64 = load i8, ptr %12, align 1
  %65 = trunc i8 %64 to i1
  %66 = zext i1 %65 to i8
  store i8 %66, ptr %12, align 1
  br label %67

67:                                               ; preds = %63
  br label %68

68:                                               ; preds = %67
  store ptr null, ptr %11, align 8
  br label %91

69:                                               ; No predecessors!
  br label %70

70:                                               ; preds = %69
  br label %71

71:                                               ; preds = %70, %53
  %72 = call ptr @H5G_open(ptr noundef %6)
  store ptr %72, ptr %5, align 8
  %73 = icmp eq ptr null, %72
  br i1 %73, label %74, label %89

74:                                               ; preds = %71
  br label %75

75:                                               ; preds = %74
  br label %76

76:                                               ; preds = %75
  br label %77

77:                                               ; preds = %76
  %78 = load i64, ptr @H5E_SYM_g, align 8
  %79 = load i64, ptr @H5E_CANTOPENOBJ_g, align 8
  %80 = call i32 (ptr, ptr, i32, i64, i64, ptr, ...) @H5E_printf_stack(ptr noundef @.str.3, ptr noundef @__func__.H5G__open_name, i32 noundef 391, i64 noundef %78, i64 noundef %79, ptr noundef @.str.16)
  br label %81

81:                                               ; preds = %77
  store i8 1, ptr %12, align 1
  %82 = load i8, ptr %12, align 1
  %83 = trunc i8 %82 to i1
  %84 = zext i1 %83 to i8
  store i8 %84, ptr %12, align 1
  br label %85

85:                                               ; preds = %81
  br label %86

86:                                               ; preds = %85
  store ptr null, ptr %11, align 8
  br label %91

87:                                               ; No predecessors!
  br label %88

88:                                               ; preds = %87
  br label %89

89:                                               ; preds = %88, %71
  %90 = load ptr, ptr %5, align 8
  store ptr %90, ptr %11, align 8
  br label %91

91:                                               ; preds = %89, %86, %68, %50, %32
  %92 = load ptr, ptr %11, align 8
  %93 = icmp ne ptr %92, null
  br i1 %93, label %114, label %94

94:                                               ; preds = %91
  %95 = load i8, ptr %9, align 1
  %96 = trunc i8 %95 to i1
  br i1 %96, label %97, label %113

97:                                               ; preds = %94
  %98 = call i32 @H5G_loc_free(ptr noundef %6)
  %99 = icmp slt i32 %98, 0
  br i1 %99, label %100, label %113

100:                                              ; preds = %97
  br label %101

101:                                              ; preds = %100
  br label %102

102:                                              ; preds = %101
  br label %103

103:                                              ; preds = %102
  %104 = load i64, ptr @H5E_SYM_g, align 8
  %105 = load i64, ptr @H5E_CANTRELEASE_g, align 8
  %106 = call i32 (ptr, ptr, i32, i64, i64, ptr, ...) @H5E_printf_stack(ptr noundef @.str.3, ptr noundef @__func__.H5G__open_name, i32 noundef 399, i64 noundef %104, i64 noundef %105, ptr noundef @.str.17)
  br label %107

107:                                              ; preds = %103
  store i8 1, ptr %12, align 1
  %108 = load i8, ptr %12, align 1
  %109 = trunc i8 %108 to i1
  %110 = zext i1 %109 to i8
  store i8 %110, ptr %12, align 1
  br label %111

111:                                              ; preds = %107
  store ptr null, ptr %11, align 8
  br label %112

112:                                              ; preds = %111
  br label %113

113:                                              ; preds = %112, %97, %94
  br label %114

114:                                              ; preds = %113, %91
  %115 = load ptr, ptr %11, align 8
  ret ptr %115
}