; Function Attrs: nounwind uwtable
define ptr @H5G__open_name(ptr noundef %0, ptr noundef %1) local_unnamed_addr #0 {
  %3 = alloca %struct.H5G_loc_t, align 8
  %4 = alloca %struct.H5G_name_t, align 8
  %5 = alloca %struct.H5O_loc_t, align 8
  %6 = alloca i32, align 4
  store ptr %5, ptr %3, align 8
  %7 = getelementptr inbounds i8, ptr %3, i64 8
  store ptr %4, ptr %7, align 8
  %8 = call i32 @H5G_loc_reset(ptr noundef nonnull %3) #10
  %9 = call i32 @H5G_loc_find(ptr noundef %0, ptr noundef %1, ptr noundef nonnull %3) #10
  %10 = icmp slt i32 %9, 0
  br i1 %10, label %11, label %15

11:                                               ; preds = %2
  %12 = load i64, ptr @H5E_SYM_g, align 8
  %13 = load i64, ptr @H5E_NOTFOUND_g, align 8
  %14 = call i32 (ptr, ptr, i32, i64, i64, ptr, ...) @H5E_printf_stack(ptr noundef nonnull @.str.3, ptr noundef nonnull @__func__.H5G__open_name, i32 noundef 380, i64 noundef %12, i64 noundef %13, ptr noundef nonnull @.str.13) #10
  br label %.thread

15:                                               ; preds = %2
  %16 = call i32 @H5O_obj_type(ptr noundef nonnull %5, ptr noundef nonnull %6) #10
  %17 = icmp slt i32 %16, 0
  br i1 %17, label %18, label %22

18:                                               ; preds = %15
  %19 = load i64, ptr @H5E_SYM_g, align 8
  %20 = load i64, ptr @H5E_CANTGET_g, align 8
  %21 = call i32 (ptr, ptr, i32, i64, i64, ptr, ...) @H5E_printf_stack(ptr noundef nonnull @.str.3, ptr noundef nonnull @__func__.H5G__open_name, i32 noundef 385, i64 noundef %19, i64 noundef %20, ptr noundef nonnull @.str.14) #10
  br label %35

22:                                               ; preds = %15
  %23 = load i32, ptr %6, align 4
  %.not = icmp eq i32 %23, 0
  br i1 %.not, label %28, label %24

24:                                               ; preds = %22
  %25 = load i64, ptr @H5E_SYM_g, align 8
  %26 = load i64, ptr @H5E_BADTYPE_g, align 8
  %27 = call i32 (ptr, ptr, i32, i64, i64, ptr, ...) @H5E_printf_stack(ptr noundef nonnull @.str.3, ptr noundef nonnull @__func__.H5G__open_name, i32 noundef 387, i64 noundef %25, i64 noundef %26, ptr noundef nonnull @.str.15) #10
  br label %35

28:                                               ; preds = %22
  %29 = call ptr @H5G_open(ptr noundef nonnull %3)
  %30 = icmp eq ptr %29, null
  br i1 %30, label %31, label %.thread

31:                                               ; preds = %28
  %32 = load i64, ptr @H5E_SYM_g, align 8
  %33 = load i64, ptr @H5E_CANTOPENOBJ_g, align 8
  %34 = call i32 (ptr, ptr, i32, i64, i64, ptr, ...) @H5E_printf_stack(ptr noundef nonnull @.str.3, ptr noundef nonnull @__func__.H5G__open_name, i32 noundef 391, i64 noundef %32, i64 noundef %33, ptr noundef nonnull @.str.16) #10
  br label %35

35:                                               ; preds = %18, %24, %31
  %36 = call i32 @H5G_loc_free(ptr noundef nonnull %3) #10
  %37 = icmp slt i32 %36, 0
  br i1 %37, label %38, label %.thread

38:                                               ; preds = %35
  %39 = load i64, ptr @H5E_SYM_g, align 8
  %40 = load i64, ptr @H5E_CANTRELEASE_g, align 8
  %41 = call i32 (ptr, ptr, i32, i64, i64, ptr, ...) @H5E_printf_stack(ptr noundef nonnull @.str.3, ptr noundef nonnull @__func__.H5G__open_name, i32 noundef 399, i64 noundef %39, i64 noundef %40, ptr noundef nonnull @.str.17) #10
  br label %.thread

.thread:                                          ; preds = %11, %28, %35, %38
  %.1 = phi ptr [ null, %38 ], [ null, %35 ], [ %29, %28 ], [ null, %11 ]
  ret ptr %.1
}